target datalayout = "e-m:e-p270:32:32-p271:32:32-p272:64:64-i64:64-i128:128-f80:128-n8:16:32:64-S128"
target triple = "x86_64-pc-linux-gnu"

%struct._lv_freetype_cache_node_t = type { ptr, i32, i32, i32, ptr, i32, ptr, ptr }

; Function Attrs: nounwind uwtable
define internal void @cache_node_cache_free_cb(ptr noundef %0, ptr noundef %1) #0 {
  %3 = alloca ptr, align 8
  %4 = alloca ptr, align 8
  store ptr %0, ptr %3, align 8, !tbaa !20
  store ptr %1, ptr %4, align 8, !tbaa !20
  %5 = load ptr, ptr %3, align 8, !tbaa !20
  %6 = getelementptr inbounds nuw %struct._lv_freetype_cache_node_t, ptr %5, i32 0, i32 4
  %7 = load ptr, ptr %6, align 8, !tbaa !30
  %8 = call i32 @FT_Done_Face(ptr noundef %7)
  %9 = load ptr, ptr %3, align 8, !tbaa !20
  %10 = getelementptr inbounds nuw %struct._lv_freetype_cache_node_t, ptr %9, i32 0, i32 5
  %11 = call i32 @lv_mutex_delete(ptr noundef %10)
  %12 = load ptr, ptr %3, align 8, !tbaa !20
  %13 = getelementptr inbounds nuw %struct._lv_freetype_cache_node_t, ptr %12, i32 0, i32 6
  %14 = load ptr, ptr %13, align 8, !tbaa !31
  %15 = icmp ne ptr %14, null
  br i1 %15, label %16, label %23

16:                                               ; preds = %2
  %17 = load ptr, ptr %3, align 8, !tbaa !20
  %18 = getelementptr inbounds nuw %struct._lv_freetype_cache_node_t, ptr %17, i32 0, i32 6
  %19 = load ptr, ptr %18, align 8, !tbaa !31
  %20 = load ptr, ptr %4, align 8, !tbaa !20
  call void @lv_cache_destroy(ptr noundef %19, ptr noundef %20)
  %21 = load ptr, ptr %3, align 8, !tbaa !20
  %22 = getelementptr inbounds nuw %struct._lv_freetype_cache_node_t, ptr %21, i32 0, i32 6
  store ptr null, ptr %22, align 8, !tbaa !31
  br label %23

23:                                               ; preds = %16, %2
  %24 = load ptr, ptr %3, align 8, !tbaa !20
  %25 = getelementptr inbounds nuw %struct._lv_freetype_cache_node_t, ptr %24, i32 0, i32 7
  %26 = load ptr, ptr %25, align 8, !tbaa !32
  %27 = icmp ne ptr %26, null
  br i1 %27, label %28, label %35

28:                                               ; preds = %23
  %29 = load ptr, ptr %3, align 8, !tbaa !20
  %30 = getelementptr inbounds nuw %struct._lv_freetype_cache_node_t, ptr %29, i32 0, i32 7
  %31 = load ptr, ptr %30, align 8, !tbaa !32
  %32 = load ptr, ptr %4, align 8, !tbaa !20
  call void @lv_cache_destroy(ptr noundef %31, ptr noundef %32)
  %33 = load ptr, ptr %3, align 8, !tbaa !20
  %34 = getelementptr inbounds nuw %struct._lv_freetype_cache_node_t, ptr %33, i32 0, i32 7
  store ptr null, ptr %34, align 8, !tbaa !32
  br label %35

35:                                               ; preds = %28, %23
  ret void
}