; Function Attrs: nounwind uwtable
define internal void @cache_node_cache_free_cb(ptr noundef %0, ptr noundef %1) #0 {
  %3 = getelementptr inbounds nuw i8, ptr %0, i64 24
  %4 = load ptr, ptr %3, align 8, !tbaa !34
  %5 = tail call i32 @FT_Done_Face(ptr noundef %4) #8
  %6 = getelementptr inbounds nuw i8, ptr %0, i64 32
  %7 = tail call i32 @lv_mutex_delete(ptr noundef nonnull %6) #8
  %8 = getelementptr inbounds nuw i8, ptr %0, i64 40
  %9 = load ptr, ptr %8, align 8, !tbaa !35
  %.not = icmp eq ptr %9, null
  br i1 %.not, label %11, label %10

10:                                               ; preds = %2
  tail call void @lv_cache_destroy(ptr noundef nonnull %9, ptr noundef %1) #8
  store ptr null, ptr %8, align 8, !tbaa !35
  br label %11

11:                                               ; preds = %10, %2
  %12 = getelementptr inbounds nuw i8, ptr %0, i64 48
  %13 = load ptr, ptr %12, align 8, !tbaa !36
  %.not11 = icmp eq ptr %13, null
  br i1 %.not11, label %15, label %14

14:                                               ; preds = %11
  tail call void @lv_cache_destroy(ptr noundef nonnull %13, ptr noundef %1) #8
  store ptr null, ptr %12, align 8, !tbaa !36
  br label %15

15:                                               ; preds = %14, %11
  ret void
}